; ModuleID = 'source-C-CXX/59/1940.c'
source_filename = "source-C-CXX/59/1940.c"
target datalayout = "e-m:e-p270:32:32-p271:32:32-p272:64:64-i64:64-f80:128-n8:16:32:64-S128"
target triple = "x86_64-pc-linux-gnu"

@.str = private unnamed_addr constant [3 x i8] c"%d\00", align 1
@.str.1 = private unnamed_addr constant [7 x i8] c"%d %d\0A\00", align 1
@.str.2 = private unnamed_addr constant [6 x i8] c"empty\00", align 1

; Function Attrs: nofree nounwind sspstrong uwtable
define dso_local i32 @main() local_unnamed_addr #0 {
  %1 = alloca i32, align 4
  %2 = bitcast i32* %1 to i8*
  call void @llvm.lifetime.start.p0i8(i64 4, i8* nonnull %2) #3
  %3 = call i32 (i8*, ...) @__isoc99_scanf(i8* getelementptr inbounds ([3 x i8], [3 x i8]* @.str, i64 0, i64 0), i32* nonnull %1)
  %4 = load i32, i32* %1, align 4, !tbaa !5
  %5 = icmp sgt i32 %4, 4
  br i1 %5, label %6, label %43

6:                                                ; preds = %0, %37
  %7 = phi i32 [ %38, %37 ], [ %4, %0 ]
  %8 = phi i32 [ %42, %37 ], [ 6, %0 ]
  %9 = phi i32 [ %41, %37 ], [ 4, %0 ]
  %10 = phi i32 [ %20, %37 ], [ 3, %0 ]
  br label %11

11:                                               ; preds = %6, %15
  %12 = phi i32 [ %16, %15 ], [ 2, %6 ]
  %13 = urem i32 %10, %12
  %14 = icmp eq i32 %13, 0
  br i1 %14, label %18, label %15

15:                                               ; preds = %11
  %16 = add nuw i32 %12, 1
  %17 = icmp eq i32 %16, %9
  br i1 %17, label %18, label %11, !llvm.loop !9

18:                                               ; preds = %15, %11
  %19 = phi i32 [ %9, %15 ], [ %12, %11 ]
  %20 = add nuw nsw i32 %10, 1
  %21 = icmp eq i32 %10, %19
  br i1 %21, label %22, label %37

22:                                               ; preds = %18
  %23 = add nuw nsw i32 %10, 2
  br label %24

24:                                               ; preds = %22, %28
  %25 = phi i32 [ 2, %22 ], [ %29, %28 ]
  %26 = urem i32 %23, %25
  %27 = icmp eq i32 %26, 0
  br i1 %27, label %31, label %28

28:                                               ; preds = %24
  %29 = add nuw i32 %25, 1
  %30 = icmp eq i32 %29, %8
  br i1 %30, label %31, label %24, !llvm.loop !11

31:                                               ; preds = %24, %28
  %32 = phi i32 [ %25, %24 ], [ %8, %28 ]
  %33 = icmp eq i32 %23, %32
  br i1 %33, label %34, label %37

34:                                               ; preds = %31
  %35 = call i32 (i8*, ...) @printf(i8* nonnull dereferenceable(1) getelementptr inbounds ([7 x i8], [7 x i8]* @.str.1, i64 0, i64 0), i32 %10, i32 %23)
  %36 = load i32, i32* %1, align 4, !tbaa !5
  br label %37

37:                                               ; preds = %18, %34, %31
  %38 = phi i32 [ %7, %18 ], [ %36, %34 ], [ %7, %31 ]
  %39 = add nsw i32 %38, -2
  %40 = icmp slt i32 %10, %39
  %41 = add nuw i32 %9, 1
  %42 = add nuw i32 %8, 1
  br i1 %40, label %6, label %45, !llvm.loop !12

43:                                               ; preds = %0
  %44 = call i32 (i8*, ...) @printf(i8* nonnull dereferenceable(1) getelementptr inbounds ([6 x i8], [6 x i8]* @.str.2, i64 0, i64 0))
  br label %45

45:                                               ; preds = %37, %43
  call void @llvm.lifetime.end.p0i8(i64 4, i8* nonnull %2) #3
  ret i32 0
}

; Function Attrs: argmemonly mustprogress nofree nosync nounwind willreturn
declare void @llvm.lifetime.start.p0i8(i64 immarg, i8* nocapture) #1

; Function Attrs: nofree nounwind
declare noundef i32 @__isoc99_scanf(i8* nocapture noundef readonly, ...) local_unnamed_addr #2

; Function Attrs: nofree nounwind
declare noundef i32 @printf(i8* nocapture noundef readonly, ...) local_unnamed_addr #2

; Function Attrs: argmemonly mustprogress nofree nosync nounwind willreturn
declare void @llvm.lifetime.end.p0i8(i64 immarg, i8* nocapture) #1


!llvm.module.flags = !{!0, !1, !2, !3}
!llvm.ident = !{!4}

!0 = !{i32 1, !"wchar_size", i32 4}
!1 = !{i32 7, !"PIC Level", i32 2}
!2 = !{i32 7, !"PIE Level", i32 2}
!3 = !{i32 7, !"uwtable", i32 1}
!4 = !{!"clang version 13.0.0"}
!5 = !{!6, !6, i64 0}
!6 = !{!"int", !7, i64 0}
!7 = !{!"omnipotent char", !8, i64 0}
!8 = !{!"Simple C/C++ TBAA"}
!9 = distinct !{!9, !10}
!10 = !{!"llvm.loop.mustprogress"}
!11 = distinct !{!11, !10}
!12 = distinct !{!12, !10}
